target datalayout = "e-m:e-p270:32:32-p271:32:32-p272:64:64-i64:64-i128:128-f80:128-n8:16:32:64-S128"
target triple = "x86_64-pc-linux-gnu"

%struct.pointf_s = type { double, double }
%struct.Agobj_s = type { %struct.Agtag_s, ptr }
%struct.Agtag_s = type { i32, i64 }
%struct.Agnodeinfo_t = type { %struct.Agrec_s, ptr, ptr, %struct.pointf_s, double, double, %struct.boxf, double, double, double, double, double, ptr, ptr, ptr, i8, i8, i8, i8, i32, i32, i32, ptr, double, i8, i8, ptr, ptr, i8, i64, i8, i8, i8, ptr, ptr, %struct.elist, %struct.elist, %struct.elist, %struct.elist, %struct.elist, ptr, i32, ptr, i32, i32, double, %struct.elist, %struct.elist, %struct.elist, %struct.elist, ptr, i32, i32, i32, [1 x double] }
%struct.Agrec_s = type { ptr, ptr }
%struct.boxf = type { %struct.pointf_s, %struct.pointf_s }
%struct.elist = type { ptr, i64 }
%struct.textlabel_t = type { ptr, ptr, ptr, i32, double, %struct.pointf_s, %struct.pointf_s, %struct.pointf_s, %union.anon.0, i8, i8, i8 }
%union.anon.0 = type { %struct.anon.1 }
%struct.anon.1 = type { ptr, i64 }
%struct.Agraphinfo_t = type { %struct.Agrec_s, ptr, ptr, %struct.boxf, [4 x %struct.pointf_s], i8, i8, i8, i8, i32, double, double, i16, ptr, ptr, ptr, ptr, i32, ptr, ptr, ptr, ptr, i16, i16, i32, ptr, ptr, ptr, ptr, ptr, i32, ptr, ptr, %struct.nlist_t, ptr, ptr, i32, i32, i8, i8, i32, i32, i32, ptr, ptr, ptr, ptr, i8, i8, i8, i8, i8 }
%struct.nlist_t = type { ptr, i64 }
%struct.field_t = type { %struct.pointf_s, %struct.boxf, i32, ptr, ptr, ptr, i8, i8 }

@stderr = external global ptr, align 8
@.str.5 = private unnamed_addr constant [58 x i8] c"integer overflow when trying to allocate %zu * %zu bytes\0A\00", align 1
@.str.6 = private unnamed_addr constant [49 x i8] c"out of memory when trying to allocate %zu bytes\0A\00", align 1
@N_fixed = external global ptr, align 8
@.str.15 = private unnamed_addr constant [6 x i8] c"false\00", align 1
@N_nojustify = external global ptr, align 8
@reclblp = internal global ptr null, align 8
@.str.19 = private unnamed_addr constant [21 x i8] c"bad label format %s\0A\00", align 1
@.str.20 = private unnamed_addr constant [3 x i8] c"\\N\00", align 1

; Function Attrs: inlinehint nounwind uwtable
define internal ptr @gv_calloc(i64 noundef %0, i64 noundef %1) #5 {
  %3 = alloca i64, align 8
  %4 = alloca i64, align 8
  %5 = alloca ptr, align 8
  store i64 %0, ptr %3, align 8, !tbaa !10
  store i64 %1, ptr %4, align 8, !tbaa !10
  %6 = load i64, ptr %3, align 8, !tbaa !10
  %7 = icmp ugt i64 %6, 0
  br i1 %7, label %8, label %18

8:                                                ; preds = %2
  %9 = load i64, ptr %3, align 8, !tbaa !10
  %10 = udiv i64 -1, %9
  %11 = load i64, ptr %4, align 8, !tbaa !10
  %12 = icmp ult i64 %10, %11
  br i1 %12, label %13, label %18

13:                                               ; preds = %8
  %14 = load ptr, ptr @stderr, align 8, !tbaa !14
  %15 = load i64, ptr %3, align 8, !tbaa !10
  %16 = load i64, ptr %4, align 8, !tbaa !10
  %17 = call i32 (ptr, ptr, ...) @fprintf(ptr noundef %14, ptr noundef @.str.5, i64 noundef %15, i64 noundef %16) #13
  call void @graphviz_exit(i32 noundef 1) #15
  unreachable

18:                                               ; preds = %8, %2
  call void @llvm.lifetime.start.p0(i64 8, ptr %5) #13
  %19 = load i64, ptr %3, align 8, !tbaa !10
  %20 = load i64, ptr %4, align 8, !tbaa !10
  %21 = call noalias ptr @calloc(i64 noundef %19, i64 noundef %20) #16
  store ptr %21, ptr %5, align 8, !tbaa !34
  %22 = load i64, ptr %3, align 8, !tbaa !10
  %23 = icmp ugt i64 %22, 0
  br i1 %23, label %24, label %36

24:                                               ; preds = %18
  %25 = load i64, ptr %4, align 8, !tbaa !10
  %26 = icmp ugt i64 %25, 0
  br i1 %26, label %27, label %36

27:                                               ; preds = %24
  %28 = load ptr, ptr %5, align 8, !tbaa !34
  %29 = icmp eq ptr %28, null
  br i1 %29, label %30, label %36

30:                                               ; preds = %27
  %31 = load ptr, ptr @stderr, align 8, !tbaa !14
  %32 = load i64, ptr %3, align 8, !tbaa !10
  %33 = load i64, ptr %4, align 8, !tbaa !10
  %34 = mul i64 %32, %33
  %35 = call i32 (ptr, ptr, ...) @fprintf(ptr noundef %31, ptr noundef @.str.6, i64 noundef %34) #13
  call void @graphviz_exit(i32 noundef 1) #15
  unreachable

36:                                               ; preds = %27, %24, %18
  %37 = load ptr, ptr %5, align 8, !tbaa !34
  call void @llvm.lifetime.end.p0(i64 8, ptr %5) #13
  ret ptr %37
}

; Function Attrs: nounwind uwtable
define internal void @record_init(ptr noundef %0) #0 {
  %2 = alloca ptr, align 8
  %3 = alloca ptr, align 8
  %4 = alloca %struct.pointf_s, align 8
  %5 = alloca i32, align 4
  %6 = alloca i64, align 8
  %7 = alloca i8, align 1
  %8 = alloca ptr, align 8
  %9 = alloca %struct.pointf_s, align 8
  %10 = alloca %struct.pointf_s, align 8
  store ptr %0, ptr %2, align 8, !tbaa !35
  call void @llvm.lifetime.start.p0(i64 8, ptr %3) #13
  call void @llvm.lifetime.start.p0(i64 16, ptr %4) #13
  call void @llvm.lifetime.start.p0(i64 4, ptr %5) #13
  call void @llvm.lifetime.start.p0(i64 8, ptr %6) #13
  call void @llvm.lifetime.start.p0(i64 1, ptr %7) #13
  store i8 15, ptr %7, align 1, !tbaa !98
  %11 = load ptr, ptr %2, align 8, !tbaa !35
  %12 = call ptr @agraphof(ptr noundef %11)
  %13 = getelementptr inbounds nuw %struct.Agobj_s, ptr %12, i32 0, i32 1
  %14 = load ptr, ptr %13, align 8, !tbaa !37
  %15 = getelementptr inbounds nuw %struct.Agraphinfo_t, ptr %14, i32 0, i32 9
  %16 = load i32, ptr %15, align 4, !tbaa !118
  %17 = ashr i32 %16, 2
  %18 = and i32 %17, 1
  %19 = icmp ne i32 %18, 0
  %20 = xor i1 %19, true
  %21 = zext i1 %20 to i32
  store i32 %21, ptr %5, align 4, !tbaa !12
  %22 = load ptr, ptr %2, align 8, !tbaa !35
  %23 = getelementptr inbounds nuw %struct.Agobj_s, ptr %22, i32 0, i32 1
  %24 = load ptr, ptr %23, align 8, !tbaa !37
  %25 = getelementptr inbounds nuw %struct.Agnodeinfo_t, ptr %24, i32 0, i32 12
  %26 = load ptr, ptr %25, align 8, !tbaa !74
  %27 = getelementptr inbounds nuw %struct.textlabel_t, ptr %26, i32 0, i32 0
  %28 = load ptr, ptr %27, align 8, !tbaa !119
  store ptr %28, ptr @reclblp, align 8, !tbaa !75
  %29 = load ptr, ptr @reclblp, align 8, !tbaa !75
  %30 = call i64 @strlen(ptr noundef %29) #17
  store i64 %30, ptr %6, align 8, !tbaa !10
  %31 = load i64, ptr %6, align 8, !tbaa !10
  %32 = icmp ugt i64 %31, 1
  br i1 %32, label %33, label %35

33:                                               ; preds = %1
  %34 = load i64, ptr %6, align 8, !tbaa !10
  br label %36

35:                                               ; preds = %1
  br label %36

36:                                               ; preds = %35, %33
  %37 = phi i64 [ %34, %33 ], [ 1, %35 ]
  %38 = icmp ugt i64 %37, 2
  br i1 %38, label %39, label %47

39:                                               ; preds = %36
  %40 = load i64, ptr %6, align 8, !tbaa !10
  %41 = icmp ugt i64 %40, 1
  br i1 %41, label %42, label %44

42:                                               ; preds = %39
  %43 = load i64, ptr %6, align 8, !tbaa !10
  br label %45

44:                                               ; preds = %39
  br label %45

45:                                               ; preds = %44, %42
  %46 = phi i64 [ %43, %42 ], [ 1, %44 ]
  br label %48

47:                                               ; preds = %36
  br label %48

48:                                               ; preds = %47, %45
  %49 = phi i64 [ %46, %45 ], [ 2, %47 ]
  store i64 %49, ptr %6, align 8, !tbaa !10
  call void @llvm.lifetime.start.p0(i64 8, ptr %8) #13
  %50 = load i64, ptr %6, align 8, !tbaa !10
  %51 = add i64 %50, 1
  %52 = call ptr @gv_calloc(i64 noundef %51, i64 noundef 1)
  store ptr %52, ptr %8, align 8, !tbaa !75
  %53 = load ptr, ptr %2, align 8, !tbaa !35
  %54 = load i32, ptr %5, align 4, !tbaa !12
  %55 = icmp ne i32 %54, 0
  %56 = load ptr, ptr %8, align 8, !tbaa !75
  %57 = call ptr @parse_reclbl(ptr noundef %53, i1 noundef zeroext %55, i1 noundef zeroext true, ptr noundef %56)
  store ptr %57, ptr %3, align 8, !tbaa !120
  %58 = icmp ne ptr %57, null
  br i1 %58, label %72, label %59

59:                                               ; preds = %48
  %60 = load ptr, ptr %2, align 8, !tbaa !35
  %61 = getelementptr inbounds nuw %struct.Agobj_s, ptr %60, i32 0, i32 1
  %62 = load ptr, ptr %61, align 8, !tbaa !37
  %63 = getelementptr inbounds nuw %struct.Agnodeinfo_t, ptr %62, i32 0, i32 12
  %64 = load ptr, ptr %63, align 8, !tbaa !74
  %65 = getelementptr inbounds nuw %struct.textlabel_t, ptr %64, i32 0, i32 0
  %66 = load ptr, ptr %65, align 8, !tbaa !119
  call void (ptr, ...) @agerrorf(ptr noundef @.str.19, ptr noundef %66)
  store ptr @.str.20, ptr @reclblp, align 8, !tbaa !75
  %67 = load ptr, ptr %2, align 8, !tbaa !35
  %68 = load i32, ptr %5, align 4, !tbaa !12
  %69 = icmp ne i32 %68, 0
  %70 = load ptr, ptr %8, align 8, !tbaa !75
  %71 = call ptr @parse_reclbl(ptr noundef %67, i1 noundef zeroext %69, i1 noundef zeroext true, ptr noundef %70)
  store ptr %71, ptr %3, align 8, !tbaa !120
  br label %72

72:                                               ; preds = %59, %48
  %73 = load ptr, ptr %8, align 8, !tbaa !75
  call void @free(ptr noundef %73) #13
  %74 = load ptr, ptr %2, align 8, !tbaa !35
  %75 = load ptr, ptr %3, align 8, !tbaa !120
  %76 = call { double, double } @size_reclbl(ptr noundef %74, ptr noundef %75)
  %77 = getelementptr inbounds nuw { double, double }, ptr %9, i32 0, i32 0
  %78 = extractvalue { double, double } %76, 0
  store double %78, ptr %77, align 8
  %79 = getelementptr inbounds nuw { double, double }, ptr %9, i32 0, i32 1
  %80 = extractvalue { double, double } %76, 1
  store double %80, ptr %79, align 8
  %81 = load ptr, ptr %2, align 8, !tbaa !35
  %82 = getelementptr inbounds nuw %struct.Agobj_s, ptr %81, i32 0, i32 1
  %83 = load ptr, ptr %82, align 8, !tbaa !37
  %84 = getelementptr inbounds nuw %struct.Agnodeinfo_t, ptr %83, i32 0, i32 4
  %85 = load double, ptr %84, align 8, !tbaa !70
  %86 = fmul double %85, 7.200000e+01
  %87 = getelementptr inbounds nuw %struct.pointf_s, ptr %4, i32 0, i32 0
  store double %86, ptr %87, align 8, !tbaa !21
  %88 = load ptr, ptr %2, align 8, !tbaa !35
  %89 = getelementptr inbounds nuw %struct.Agobj_s, ptr %88, i32 0, i32 1
  %90 = load ptr, ptr %89, align 8, !tbaa !37
  %91 = getelementptr inbounds nuw %struct.Agnodeinfo_t, ptr %90, i32 0, i32 5
  %92 = load double, ptr %91, align 8, !tbaa !71
  %93 = fmul double %92, 7.200000e+01
  %94 = getelementptr inbounds nuw %struct.pointf_s, ptr %4, i32 0, i32 1
  store double %93, ptr %94, align 8, !tbaa !23
  %95 = load ptr, ptr %2, align 8, !tbaa !35
  %96 = load ptr, ptr @N_fixed, align 8, !tbaa !72
  %97 = call ptr @late_string(ptr noundef %95, ptr noundef %96, ptr noundef @.str.15)
  %98 = call zeroext i1 @mapbool(ptr noundef %97)
  br i1 %98, label %99, label %117

99:                                               ; preds = %72
  %100 = getelementptr inbounds nuw %struct.pointf_s, ptr %4, i32 0, i32 0
  %101 = load double, ptr %100, align 8, !tbaa !21
  %102 = load ptr, ptr %3, align 8, !tbaa !120
  %103 = getelementptr inbounds nuw %struct.field_t, ptr %102, i32 0, i32 0
  %104 = getelementptr inbounds nuw %struct.pointf_s, ptr %103, i32 0, i32 0
  %105 = load double, ptr %104, align 8, !tbaa !122
  %106 = fcmp olt double %101, %105
  br i1 %106, label %115, label %107

107:                                              ; preds = %99
  %108 = getelementptr inbounds nuw %struct.pointf_s, ptr %4, i32 0, i32 1
  %109 = load double, ptr %108, align 8, !tbaa !23
  %110 = load ptr, ptr %3, align 8, !tbaa !120
  %111 = getelementptr inbounds nuw %struct.field_t, ptr %110, i32 0, i32 0
  %112 = getelementptr inbounds nuw %struct.pointf_s, ptr %111, i32 0, i32 1
  %113 = load double, ptr %112, align 8, !tbaa !125
  %114 = fcmp olt double %109, %113
  br i1 %114, label %115, label %116

115:                                              ; preds = %107, %99
  br label %116

116:                                              ; preds = %115, %107
  br label %134

117:                                              ; preds = %72
  %118 = load ptr, ptr %3, align 8, !tbaa !120
  %119 = getelementptr inbounds nuw %struct.field_t, ptr %118, i32 0, i32 0
  %120 = getelementptr inbounds nuw %struct.pointf_s, ptr %119, i32 0, i32 0
  %121 = load double, ptr %120, align 8, !tbaa !122
  %122 = getelementptr inbounds nuw %struct.pointf_s, ptr %4, i32 0, i32 0
  %123 = load double, ptr %122, align 8, !tbaa !21
  %124 = call double @llvm.maxnum.f64(double %121, double %123)
  %125 = getelementptr inbounds nuw %struct.pointf_s, ptr %4, i32 0, i32 0
  store double %124, ptr %125, align 8, !tbaa !21
  %126 = load ptr, ptr %3, align 8, !tbaa !120
  %127 = getelementptr inbounds nuw %struct.field_t, ptr %126, i32 0, i32 0
  %128 = getelementptr inbounds nuw %struct.pointf_s, ptr %127, i32 0, i32 1
  %129 = load double, ptr %128, align 8, !tbaa !125
  %130 = getelementptr inbounds nuw %struct.pointf_s, ptr %4, i32 0, i32 1
  %131 = load double, ptr %130, align 8, !tbaa !23
  %132 = call double @llvm.maxnum.f64(double %129, double %131)
  %133 = getelementptr inbounds nuw %struct.pointf_s, ptr %4, i32 0, i32 1
  store double %132, ptr %133, align 8, !tbaa !23
  br label %134

134:                                              ; preds = %117, %116
  %135 = load ptr, ptr %3, align 8, !tbaa !120
  %136 = load ptr, ptr %2, align 8, !tbaa !35
  %137 = load ptr, ptr @N_nojustify, align 8, !tbaa !72
  %138 = call ptr @late_string(ptr noundef %136, ptr noundef %137, ptr noundef @.str.15)
  %139 = call zeroext i1 @mapbool(ptr noundef %138)
  %140 = getelementptr inbounds nuw { double, double }, ptr %4, i32 0, i32 0
  %141 = load double, ptr %140, align 8
  %142 = getelementptr inbounds nuw { double, double }, ptr %4, i32 0, i32 1
  %143 = load double, ptr %142, align 8
  call void @resize_reclbl(ptr noundef %135, double %141, double %143, i1 noundef zeroext %139)
  call void @llvm.lifetime.start.p0(i64 16, ptr %10) #13
  %144 = getelementptr inbounds nuw %struct.pointf_s, ptr %10, i32 0, i32 0
  %145 = getelementptr inbounds nuw %struct.pointf_s, ptr %4, i32 0, i32 0
  %146 = load double, ptr %145, align 8, !tbaa !21
  %147 = fneg double %146
  %148 = fdiv double %147, 2.000000e+00
  store double %148, ptr %144, align 8, !tbaa !21
  %149 = getelementptr inbounds nuw %struct.pointf_s, ptr %10, i32 0, i32 1
  %150 = getelementptr inbounds nuw %struct.pointf_s, ptr %4, i32 0, i32 1
  %151 = load double, ptr %150, align 8, !tbaa !23
  %152 = fdiv double %151, 2.000000e+00
  store double %152, ptr %149, align 8, !tbaa !23
  %153 = load ptr, ptr %3, align 8, !tbaa !120
  %154 = load i8, ptr %7, align 1, !tbaa !98
  %155 = getelementptr inbounds nuw { double, double }, ptr %10, i32 0, i32 0
  %156 = load double, ptr %155, align 8
  %157 = getelementptr inbounds nuw { double, double }, ptr %10, i32 0, i32 1
  %158 = load double, ptr %157, align 8
  call void @pos_reclbl(ptr noundef %153, double %156, double %158, i8 noundef zeroext %154)
  %159 = load ptr, ptr %3, align 8, !tbaa !120
  %160 = getelementptr inbounds nuw %struct.field_t, ptr %159, i32 0, i32 0
  %161 = getelementptr inbounds nuw %struct.pointf_s, ptr %160, i32 0, i32 0
  %162 = load double, ptr %161, align 8, !tbaa !122
  %163 = fdiv double %162, 7.200000e+01
  %164 = load ptr, ptr %2, align 8, !tbaa !35
  %165 = getelementptr inbounds nuw %struct.Agobj_s, ptr %164, i32 0, i32 1
  %166 = load ptr, ptr %165, align 8, !tbaa !37
  %167 = getelementptr inbounds nuw %struct.Agnodeinfo_t, ptr %166, i32 0, i32 4
  store double %163, ptr %167, align 8, !tbaa !70
  %168 = load ptr, ptr %3, align 8, !tbaa !120
  %169 = getelementptr inbounds nuw %struct.field_t, ptr %168, i32 0, i32 0
  %170 = getelementptr inbounds nuw %struct.pointf_s, ptr %169, i32 0, i32 1
  %171 = load double, ptr %170, align 8, !tbaa !125
  %172 = fadd double %171, 1.000000e+00
  %173 = fdiv double %172, 7.200000e+01
  %174 = load ptr, ptr %2, align 8, !tbaa !35
  %175 = getelementptr inbounds nuw %struct.Agobj_s, ptr %174, i32 0, i32 1
  %176 = load ptr, ptr %175, align 8, !tbaa !37
  %177 = getelementptr inbounds nuw %struct.Agnodeinfo_t, ptr %176, i32 0, i32 5
  store double %173, ptr %177, align 8, !tbaa !71
  %178 = load ptr, ptr %3, align 8, !tbaa !120
  %179 = load ptr, ptr %2, align 8, !tbaa !35
  %180 = getelementptr inbounds nuw %struct.Agobj_s, ptr %179, i32 0, i32 1
  %181 = load ptr, ptr %180, align 8, !tbaa !37
  %182 = getelementptr inbounds nuw %struct.Agnodeinfo_t, ptr %181, i32 0, i32 2
  store ptr %178, ptr %182, align 8, !tbaa !117
  call void @llvm.lifetime.end.p0(i64 16, ptr %10) #13
  call void @llvm.lifetime.end.p0(i64 8, ptr %8) #13
  call void @llvm.lifetime.end.p0(i64 1, ptr %7) #13
  call void @llvm.lifetime.end.p0(i64 8, ptr %6) #13
  call void @llvm.lifetime.end.p0(i64 4, ptr %5) #13
  call void @llvm.lifetime.end.p0(i64 16, ptr %4) #13
  call void @llvm.lifetime.end.p0(i64 8, ptr %3) #13
  ret void
}