; Function Attrs: nounwind uwtable
define internal void @record_init(ptr noundef %0) #0 {
  %2 = tail call ptr @agraphof(ptr noundef %0) #26
  %3 = getelementptr inbounds nuw i8, ptr %2, i64 16
  %4 = load ptr, ptr %3, align 8, !tbaa !21
  %5 = getelementptr inbounds nuw i8, ptr %4, i64 132
  %6 = load i32, ptr %5, align 4, !tbaa !101
  %7 = and i32 %6, 4
  %.not = icmp eq i32 %7, 0
  %8 = getelementptr inbounds nuw i8, ptr %0, i64 16
  %9 = load ptr, ptr %8, align 8, !tbaa !21
  %10 = getelementptr inbounds nuw i8, ptr %9, i64 136
  %11 = load ptr, ptr %10, align 8, !tbaa !60
  %12 = load ptr, ptr %11, align 8, !tbaa !102
  store ptr %12, ptr @reclblp, align 8, !tbaa !103
  %13 = tail call i64 @strlen(ptr noundef nonnull dereferenceable(1) %12) #31
  %14 = tail call i64 @llvm.umax.i64(i64 %13, i64 2)
  %15 = add i64 %14, 1
  %.not.i = icmp eq i64 %15, 0
  br i1 %.not.i, label %.thread.i, label %17

.thread.i:                                        ; preds = %1
  %16 = tail call noalias ptr @calloc(i64 noundef 0, i64 noundef 1) #27
  br label %gv_calloc.exit

17:                                               ; preds = %1
  %18 = tail call noalias ptr @calloc(i64 noundef %15, i64 noundef 1) #27
  %19 = icmp eq ptr %18, null
  br i1 %19, label %20, label %gv_calloc.exit

20:                                               ; preds = %17
  %21 = load ptr, ptr @stderr, align 8, !tbaa !10
  %22 = tail call i32 (ptr, ptr, ...) @fprintf(ptr noundef %21, ptr noundef nonnull @.str.6, i64 noundef %15) #28
  tail call fastcc void @graphviz_exit() #29
  unreachable

gv_calloc.exit:                                   ; preds = %.thread.i, %17
  %23 = phi ptr [ %16, %.thread.i ], [ %18, %17 ]
  %24 = tail call fastcc ptr @parse_reclbl(ptr noundef nonnull %0, i1 noundef zeroext %.not, i1 noundef zeroext true, ptr noundef %23)
  %.not38 = icmp eq ptr %24, null
  br i1 %.not38, label %25, label %31

25:                                               ; preds = %gv_calloc.exit
  %26 = load ptr, ptr %8, align 8, !tbaa !21
  %27 = getelementptr inbounds nuw i8, ptr %26, i64 136
  %28 = load ptr, ptr %27, align 8, !tbaa !60
  %29 = load ptr, ptr %28, align 8, !tbaa !102
  tail call void (ptr, ...) @agerrorf(ptr noundef nonnull @.str.19, ptr noundef %29) #26
  store ptr @.str.20, ptr @reclblp, align 8, !tbaa !103
  %30 = tail call fastcc ptr @parse_reclbl(ptr noundef nonnull %0, i1 noundef zeroext %.not, i1 noundef zeroext true, ptr noundef %23)
  br label %31

31:                                               ; preds = %25, %gv_calloc.exit
  %.0 = phi ptr [ %24, %gv_calloc.exit ], [ %30, %25 ]
  tail call void @free(ptr noundef %23) #26
  %32 = tail call fastcc { double, double } @size_reclbl(ptr noundef nonnull %0, ptr noundef %.0)
  %33 = load ptr, ptr %8, align 8, !tbaa !21
  %34 = getelementptr inbounds nuw i8, ptr %33, i64 48
  %35 = load double, ptr %34, align 8, !tbaa !58
  %36 = fmul double %35, 7.200000e+01
  %37 = getelementptr inbounds nuw i8, ptr %33, i64 56
  %38 = load double, ptr %37, align 8, !tbaa !59
  %39 = fmul double %38, 7.200000e+01
  %40 = load ptr, ptr @N_fixed, align 8, !tbaa !56
  %41 = tail call ptr @late_string(ptr noundef nonnull %0, ptr noundef %40, ptr noundef nonnull @.str.15) #26
  %42 = tail call zeroext i1 @mapbool(ptr noundef %41) #26
  br i1 %42, label %49, label %43

43:                                               ; preds = %31
  %44 = load double, ptr %.0, align 8, !tbaa !104
  %45 = tail call double @llvm.maxnum.f64(double %44, double %36)
  %46 = getelementptr inbounds nuw i8, ptr %.0, i64 8
  %47 = load double, ptr %46, align 8, !tbaa !107
  %48 = tail call double @llvm.maxnum.f64(double %47, double %39)
  br label %49

49:                                               ; preds = %31, %43
  %.sroa.011.0 = phi double [ %36, %31 ], [ %45, %43 ]
  %.sroa.7.0 = phi double [ %39, %31 ], [ %48, %43 ]
  %50 = load ptr, ptr @N_nojustify, align 8, !tbaa !56
  %51 = tail call ptr @late_string(ptr noundef nonnull %0, ptr noundef %50, ptr noundef nonnull @.str.15) #26
  %52 = tail call zeroext i1 @mapbool(ptr noundef %51) #26
  tail call fastcc void @resize_reclbl(ptr noundef %.0, double %.sroa.011.0, double %.sroa.7.0, i1 noundef zeroext %52)
  %53 = fmul double %.sroa.011.0, -5.000000e-01
  %54 = fmul double %.sroa.7.0, 5.000000e-01
  tail call fastcc void @pos_reclbl(ptr noundef %.0, double %53, double %54, i8 noundef zeroext 15)
  %55 = load double, ptr %.0, align 8, !tbaa !104
  %56 = fdiv double %55, 7.200000e+01
  %57 = load ptr, ptr %8, align 8, !tbaa !21
  %58 = getelementptr inbounds nuw i8, ptr %57, i64 48
  store double %56, ptr %58, align 8, !tbaa !58
  %59 = getelementptr inbounds nuw i8, ptr %.0, i64 8
  %60 = load double, ptr %59, align 8, !tbaa !107
  %61 = fadd double %60, 1.000000e+00
  %62 = fdiv double %61, 7.200000e+01
  %63 = getelementptr inbounds nuw i8, ptr %57, i64 56
  store double %62, ptr %63, align 8, !tbaa !59
  %64 = getelementptr inbounds nuw i8, ptr %57, i64 24
  store ptr %.0, ptr %64, align 8, !tbaa !100
  ret void
}